target datalayout = "e-m:e-p270:32:32-p271:32:32-p272:64:64-i64:64-i128:128-f80:128-n8:16:32:64-S128"
target triple = "x86_64-pc-linux-gnu"

%struct.lua_State = type { %struct.GCRef, i8, i8, i8, i8, %struct.MRef, %struct.GCRef, ptr, ptr, %struct.MRef, %struct.MRef, %struct.GCRef, %struct.GCRef, ptr, i32 }
%struct.MRef = type { i64 }
%struct.GCRef = type { i64 }
%union.TValue = type { i64 }
%struct.jit_State = type { %struct.GCtrace, ptr, ptr, ptr, ptr, ptr, ptr, i32, i32, i32, i8, i8, %struct.IRType1, i8, %struct.FoldState, ptr, i32, i32, i32, i32, i32, i32, i32, [1 x i32], [5 x %union.TValue], [3 x %union.TValue], ptr, i32, i32, i32, i32, ptr, ptr, i32, i32, i8, ptr, i32, i32, i16, [101 x i16], [258 x i32], [15 x i32], [16 x ptr], [64 x %struct.HotPenalty], i32, [16 x %struct.BPropEntry], i32, %struct.ScEvEntry, ptr, i32, i32, i32, ptr, i32, i32, ptr, ptr, ptr, i64, i64, %union.TValue, ptr, i32, i32 }
%struct.GCtrace = type { %struct.GCRef, i8, i8, i16, i32, i32, %struct.GCRef, ptr, i32, i32, ptr, ptr, %struct.GCRef, %struct.MRef, i32, i32, ptr, i32, i16, i16, i16, i16, i16, i16, i16, i8, i8, i8, i8 }
%struct.IRType1 = type { i8 }
%struct.FoldState = type { %union.IRIns, [2 x %union.IRIns], [2 x %union.IRIns] }
%union.IRIns = type { %struct.GCRef }
%struct.HotPenalty = type { %struct.MRef, i16, i16 }
%struct.BPropEntry = type { i16, i16, i32 }
%struct.ScEvEntry = type { %struct.MRef, i16, i16, i16, i16, %struct.IRType1, i8 }
%struct.GCfuncL = type { %struct.GCRef, i8, i8, i8, i8, %struct.GCRef, %struct.GCRef, %struct.MRef, [1 x %struct.GCRef] }
%struct.GCproto = type { %struct.GCRef, i8, i8, i8, i8, i32, i32, %struct.GCRef, %struct.MRef, %struct.MRef, i32, i32, i32, i8, i8, i16, %struct.GCRef, i32, i32, %struct.MRef, %struct.MRef, %struct.MRef }

; Function Attrs: nounwind uwtable
define internal i32 @cur_topslot(ptr noundef %0, ptr noundef %1, i32 noundef %2) #0 {
  %4 = alloca i32, align 4
  %5 = alloca ptr, align 8
  %6 = alloca ptr, align 8
  %7 = alloca i32, align 4
  %8 = alloca i32, align 4
  %9 = alloca i32, align 4
  store ptr %0, ptr %5, align 8, !tbaa !66
  store ptr %1, ptr %6, align 8, !tbaa !78
  store i32 %2, ptr %7, align 4, !tbaa !10
  call void @llvm.lifetime.start.p0(i64 4, ptr %8) #7
  %10 = load ptr, ptr %6, align 8, !tbaa !78
  %11 = getelementptr inbounds i32, ptr %10, i64 -1
  %12 = load i32, ptr %11, align 4, !tbaa !10
  store i32 %12, ptr %8, align 4, !tbaa !10
  %13 = load i32, ptr %8, align 4, !tbaa !10
  %14 = and i32 %13, 255
  %15 = icmp eq i32 %14, 50
  br i1 %15, label %16, label %24

16:                                               ; preds = %3
  %17 = load ptr, ptr %6, align 8, !tbaa !78
  %18 = load i32, ptr %8, align 4, !tbaa !10
  %19 = lshr i32 %18, 16
  %20 = zext i32 %19 to i64
  %21 = sub nsw i64 %20, 32768
  %22 = getelementptr inbounds i32, ptr %17, i64 %21
  %23 = load i32, ptr %22, align 4, !tbaa !10
  store i32 %23, ptr %8, align 4, !tbaa !10
  br label %24

24:                                               ; preds = %16, %3
  %25 = load i32, ptr %8, align 4, !tbaa !10
  %26 = and i32 %25, 255
  switch i32 %26, label %57 [
    i32 65, label %27
    i32 67, label %27
    i32 73, label %40
    i32 63, label %50
  ]

27:                                               ; preds = %24, %24
  %28 = load i32, ptr %8, align 4, !tbaa !10
  %29 = lshr i32 %28, 8
  %30 = and i32 %29, 255
  %31 = load i32, ptr %8, align 4, !tbaa !10
  %32 = lshr i32 %31, 16
  %33 = and i32 %32, 255
  %34 = add i32 %30, %33
  %35 = load i32, ptr %7, align 4, !tbaa !10
  %36 = add i32 %34, %35
  %37 = sub i32 %36, 1
  %38 = add i32 %37, 1
  %39 = add i32 %38, 1
  store i32 %39, ptr %4, align 4
  store i32 1, ptr %9, align 4
  br label %62

40:                                               ; preds = %24
  %41 = load i32, ptr %8, align 4, !tbaa !10
  %42 = lshr i32 %41, 8
  %43 = and i32 %42, 255
  %44 = load i32, ptr %8, align 4, !tbaa !10
  %45 = lshr i32 %44, 16
  %46 = add i32 %43, %45
  %47 = load i32, ptr %7, align 4, !tbaa !10
  %48 = add i32 %46, %47
  %49 = sub i32 %48, 1
  store i32 %49, ptr %4, align 4
  store i32 1, ptr %9, align 4
  br label %62

50:                                               ; preds = %24
  %51 = load i32, ptr %8, align 4, !tbaa !10
  %52 = lshr i32 %51, 8
  %53 = and i32 %52, 255
  %54 = load i32, ptr %7, align 4, !tbaa !10
  %55 = add i32 %53, %54
  %56 = sub i32 %55, 1
  store i32 %56, ptr %4, align 4
  store i32 1, ptr %9, align 4
  br label %62

57:                                               ; preds = %24
  %58 = load ptr, ptr %5, align 8, !tbaa !66
  %59 = getelementptr inbounds nuw %struct.GCproto, ptr %58, i32 0, i32 4
  %60 = load i8, ptr %59, align 1, !tbaa !90
  %61 = zext i8 %60 to i32
  store i32 %61, ptr %4, align 4
  store i32 1, ptr %9, align 4
  br label %62

62:                                               ; preds = %57, %50, %40, %27
  call void @llvm.lifetime.end.p0(i64 4, ptr %8) #7
  %63 = load i32, ptr %4, align 4
  ret i32 %63
}

; Function Attrs: nounwind uwtable
define hidden void @lj_dispatch_stitch(ptr noundef %0, ptr noundef %1) #0 {
  %3 = alloca ptr, align 8
  %4 = alloca ptr, align 8
  %5 = alloca i32, align 4
  %6 = alloca ptr, align 8
  %7 = alloca ptr, align 8
  %8 = alloca ptr, align 8
  store ptr %0, ptr %3, align 8, !tbaa !85
  store ptr %1, ptr %4, align 8, !tbaa !78
  call void @llvm.lifetime.start.p0(i64 4, ptr %5) #7
  %9 = call ptr @__errno_location() #9
  %10 = load i32, ptr %9, align 4, !tbaa !10
  store i32 %10, ptr %5, align 4, !tbaa !10
  call void @llvm.lifetime.start.p0(i64 8, ptr %6) #7
  %11 = load ptr, ptr %3, align 8, !tbaa !85
  %12 = getelementptr inbounds nuw %struct.jit_State, ptr %11, i32 0, i32 2
  %13 = load ptr, ptr %12, align 8, !tbaa !88
  store ptr %13, ptr %6, align 8, !tbaa !61
  call void @llvm.lifetime.start.p0(i64 8, ptr %7) #7
  %14 = load ptr, ptr %6, align 8, !tbaa !61
  %15 = getelementptr inbounds nuw %struct.lua_State, ptr %14, i32 0, i32 13
  %16 = load ptr, ptr %15, align 8, !tbaa !83
  %17 = ptrtoint ptr %16 to i64
  %18 = and i64 %17, -4
  %19 = inttoptr i64 %18 to ptr
  store ptr %19, ptr %7, align 8, !tbaa !9
  call void @llvm.lifetime.start.p0(i64 8, ptr %8) #7
  %20 = load ptr, ptr %7, align 8, !tbaa !9
  %21 = getelementptr inbounds i8, ptr %20, i64 24
  %22 = getelementptr inbounds nuw %struct.MRef, ptr %21, i32 0, i32 0
  %23 = load i64, ptr %22, align 8, !tbaa !84
  %24 = inttoptr i64 %23 to ptr
  store ptr %24, ptr %8, align 8, !tbaa !78
  %25 = load ptr, ptr %4, align 8, !tbaa !78
  %26 = ptrtoint ptr %25 to i64
  %27 = load ptr, ptr %7, align 8, !tbaa !9
  %28 = getelementptr inbounds i8, ptr %27, i64 24
  %29 = getelementptr inbounds nuw %struct.MRef, ptr %28, i32 0, i32 0
  store i64 %26, ptr %29, align 8, !tbaa !84
  %30 = load ptr, ptr %6, align 8, !tbaa !61
  %31 = getelementptr inbounds nuw %struct.lua_State, ptr %30, i32 0, i32 7
  %32 = load ptr, ptr %31, align 8, !tbaa !63
  %33 = load ptr, ptr %6, align 8, !tbaa !61
  %34 = getelementptr inbounds nuw %struct.lua_State, ptr %33, i32 0, i32 7
  %35 = load ptr, ptr %34, align 8, !tbaa !63
  %36 = getelementptr inbounds %union.TValue, ptr %35, i64 -2
  %37 = getelementptr inbounds nuw %struct.GCRef, ptr %36, i32 0, i32 0
  %38 = load i64, ptr %37, align 8, !tbaa !54
  %39 = and i64 %38, 140737488355327
  %40 = inttoptr i64 %39 to ptr
  %41 = getelementptr inbounds nuw %struct.GCfuncL, ptr %40, i32 0, i32 7
  %42 = getelementptr inbounds nuw %struct.MRef, ptr %41, i32 0, i32 0
  %43 = load i64, ptr %42, align 8, !tbaa !54
  %44 = inttoptr i64 %43 to ptr
  %45 = getelementptr inbounds i8, ptr %44, i64 -104
  %46 = load ptr, ptr %4, align 8, !tbaa !78
  %47 = getelementptr inbounds i32, ptr %46, i64 1
  %48 = load ptr, ptr %7, align 8, !tbaa !9
  %49 = getelementptr inbounds i8, ptr %48, i64 0
  %50 = load i32, ptr %49, align 4, !tbaa !10
  %51 = lshr i32 %50, 0
  %52 = call i32 @cur_topslot(ptr noundef %45, ptr noundef %47, i32 noundef %51)
  %53 = zext i32 %52 to i64
  %54 = getelementptr inbounds nuw %union.TValue, ptr %32, i64 %53
  %55 = load ptr, ptr %6, align 8, !tbaa !61
  %56 = getelementptr inbounds nuw %struct.lua_State, ptr %55, i32 0, i32 8
  store ptr %54, ptr %56, align 8, !tbaa !64
  %57 = load ptr, ptr %3, align 8, !tbaa !85
  %58 = load ptr, ptr %4, align 8, !tbaa !78
  %59 = getelementptr inbounds i32, ptr %58, i64 -1
  call void @lj_trace_stitch(ptr noundef %57, ptr noundef %59)
  %60 = load ptr, ptr %8, align 8, !tbaa !78
  %61 = ptrtoint ptr %60 to i64
  %62 = load ptr, ptr %7, align 8, !tbaa !9
  %63 = getelementptr inbounds i8, ptr %62, i64 24
  %64 = getelementptr inbounds nuw %struct.MRef, ptr %63, i32 0, i32 0
  store i64 %61, ptr %64, align 8, !tbaa !84
  %65 = load i32, ptr %5, align 4, !tbaa !10
  %66 = call ptr @__errno_location() #9
  store i32 %65, ptr %66, align 4, !tbaa !10
  call void @llvm.lifetime.end.p0(i64 8, ptr %8) #7
  call void @llvm.lifetime.end.p0(i64 8, ptr %7) #7
  call void @llvm.lifetime.end.p0(i64 8, ptr %6) #7
  call void @llvm.lifetime.end.p0(i64 4, ptr %5) #7
  ret void
}