; Function Attrs: nounwind uwtable
define hidden void @lj_dispatch_stitch(ptr noundef %0, ptr noundef %1) local_unnamed_addr #4 {
  %3 = tail call ptr @__errno_location() #13
  %4 = load i32, ptr %3, align 4, !tbaa !44
  %5 = getelementptr inbounds nuw i8, ptr %0, i64 128
  %6 = load ptr, ptr %5, align 8, !tbaa !73
  %7 = getelementptr inbounds nuw i8, ptr %6, i64 80
  %8 = load ptr, ptr %7, align 8, !tbaa !69
  %9 = ptrtoint ptr %8 to i64
  %10 = and i64 %9, -4
  %11 = inttoptr i64 %10 to ptr
  %12 = getelementptr inbounds nuw i8, ptr %11, i64 24
  %13 = load i64, ptr %12, align 8, !tbaa !70
  %14 = ptrtoint ptr %1 to i64
  store i64 %14, ptr %12, align 8, !tbaa !70
  %15 = getelementptr inbounds nuw i8, ptr %6, i64 32
  %16 = load ptr, ptr %15, align 8, !tbaa !55
  %17 = getelementptr inbounds i8, ptr %16, i64 -16
  %18 = load i64, ptr %17, align 8, !tbaa !56
  %19 = and i64 %18, 140737488355327
  %20 = inttoptr i64 %19 to ptr
  %21 = getelementptr inbounds nuw i8, ptr %20, i64 32
  %22 = load i64, ptr %21, align 8, !tbaa !56
  %23 = inttoptr i64 %22 to ptr
  %24 = load i32, ptr %11, align 4, !tbaa !44
  %25 = load i32, ptr %1, align 4, !tbaa !44
  %26 = and i32 %25, 255
  %27 = icmp eq i32 %26, 50
  br i1 %27, label %28, label %35

28:                                               ; preds = %2
  %29 = getelementptr inbounds nuw i8, ptr %1, i64 4
  %30 = lshr i32 %25, 16
  %31 = zext nneg i32 %30 to i64
  %32 = getelementptr i32, ptr %29, i64 %31
  %33 = getelementptr i8, ptr %32, i64 -131072
  %34 = load i32, ptr %33, align 4, !tbaa !44
  %.pre.i = and i32 %34, 255
  br label %35

35:                                               ; preds = %28, %2
  %.pre-phi.i = phi i32 [ %.pre.i, %28 ], [ %26, %2 ]
  %.0.i = phi i32 [ %34, %28 ], [ %25, %2 ]
  %36 = add nsw i32 %.pre-phi.i, -63
  %37 = tail call i32 @llvm.fshl.i32(i32 %36, i32 %36, i32 31)
  switch i32 %37, label %58 [
    i32 1, label %38
    i32 2, label %38
    i32 5, label %46
    i32 0, label %53
  ]

38:                                               ; preds = %35, %35
  %39 = lshr i32 %.0.i, 8
  %40 = and i32 %39, 255
  %41 = lshr i32 %.0.i, 16
  %42 = and i32 %41, 255
  %43 = add i32 %24, 1
  %44 = add i32 %43, %42
  %45 = add i32 %44, %40
  br label %cur_topslot.exit

46:                                               ; preds = %35
  %47 = lshr i32 %.0.i, 8
  %48 = and i32 %47, 255
  %49 = lshr i32 %.0.i, 16
  %50 = add i32 %24, -1
  %51 = add i32 %50, %49
  %52 = add i32 %51, %48
  br label %cur_topslot.exit

53:                                               ; preds = %35
  %54 = lshr i32 %.0.i, 8
  %55 = and i32 %54, 255
  %56 = add i32 %24, -1
  %57 = add i32 %56, %55
  br label %cur_topslot.exit

58:                                               ; preds = %35
  %59 = getelementptr inbounds i8, ptr %23, i64 -93
  %60 = load i8, ptr %59, align 1, !tbaa !71
  %61 = zext i8 %60 to i32
  br label %cur_topslot.exit

cur_topslot.exit:                                 ; preds = %38, %46, %53, %58
  %.014.i = phi i32 [ %61, %58 ], [ %57, %53 ], [ %52, %46 ], [ %45, %38 ]
  %62 = zext i32 %.014.i to i64
  %63 = getelementptr inbounds nuw %union.TValue, ptr %16, i64 %62
  %64 = getelementptr inbounds nuw i8, ptr %6, i64 40
  store ptr %63, ptr %64, align 8, !tbaa !57
  %65 = getelementptr inbounds i8, ptr %1, i64 -4
  tail call void @lj_trace_stitch(ptr noundef nonnull %0, ptr noundef nonnull %65) #12
  store i64 %13, ptr %12, align 8, !tbaa !70
  store i32 %4, ptr %3, align 4, !tbaa !44
  ret void
}